target datalayout = "e-m:e-p270:32:32-p271:32:32-p272:64:64-i64:64-i128:128-f80:128-n8:16:32:64-S128"
target triple = "x86_64-pc-linux-gnu"

%struct.CVodeMemRec = type { double, ptr, ptr, i32, i32, i32, double, double, ptr, i32, ptr, ptr, i32, ptr, i32, i32, double, double, ptr, i32, i32, i32, ptr, ptr, ptr, i32, i32, ptr, ptr, ptr, i32, double, i32, i32, double, ptr, ptr, i32, ptr, ptr, i32, i32, i32, double, ptr, ptr, [13 x ptr], ptr, ptr, ptr, ptr, ptr, [13 x ptr], ptr, ptr, ptr, ptr, [13 x ptr], ptr, ptr, ptr, ptr, ptr, i32, [13 x ptr], ptr, ptr, ptr, ptr, ptr, i32, double, i32, i32, i32, i32, i32, double, double, double, double, double, double, double, double, [14 x double], [6 x double], [13 x double], double, double, double, double, double, double, double, double, double, double, double, i32, ptr, i32, i64, i32, i32, i32, i32, i32, double, double, double, i64, i64, i64, i64, i64, i64, i64, i64, i64, ptr, i64, i64, ptr, i64, i64, i64, i64, i64, i64, i32, i64, i64, i64, i64, i64, i64, double, double, double, ptr, ptr, ptr, ptr, ptr, i32, i32, i64, double, double, double, i32, double, i32, i32, i32, i32, i32, i32, i32, i32, i32, i32, i32, i32, i32, i32, i32, i32, ptr, ptr, ptr, i32, [6 x [4 x double]], i32, i64, ptr, i32, ptr, ptr, double, double, double, ptr, ptr, ptr, double, double, i32, i32, i64, ptr, i32, i32, ptr, i32 }
%struct.CVSpilsMemRec = type { i32, i32, i32, double, double, double, double, i32, i64, i64, i64, i64, i64, i64, i64, ptr, ptr, ptr, ptr, ptr, ptr, ptr, ptr, ptr, i32, ptr, ptr, i64 }

; Function Attrs: nounwind uwtable
define i32 @CVSpilsAtimes(ptr noundef %0, ptr noundef %1, ptr noundef %2) #0 {
  %4 = alloca i32, align 4
  %5 = alloca ptr, align 8
  %6 = alloca ptr, align 8
  %7 = alloca ptr, align 8
  %8 = alloca ptr, align 8
  %9 = alloca ptr, align 8
  %10 = alloca i32, align 4
  %11 = alloca i32, align 4
  store ptr %0, ptr %5, align 8, !tbaa !3
  store ptr %1, ptr %6, align 8, !tbaa !48
  store ptr %2, ptr %7, align 8, !tbaa !48
  call void @llvm.lifetime.start.p0(i64 8, ptr %8) #5
  call void @llvm.lifetime.start.p0(i64 8, ptr %9) #5
  call void @llvm.lifetime.start.p0(i64 4, ptr %10) #5
  %12 = load ptr, ptr %5, align 8, !tbaa !3
  store ptr %12, ptr %8, align 8, !tbaa !9
  %13 = load ptr, ptr %8, align 8, !tbaa !9
  %14 = getelementptr inbounds nuw %struct.CVodeMemRec, ptr %13, i32 0, i32 144
  %15 = load ptr, ptr %14, align 8, !tbaa !11
  store ptr %15, ptr %9, align 8, !tbaa !22
  %16 = load ptr, ptr %9, align 8, !tbaa !22
  %17 = getelementptr inbounds nuw %struct.CVSpilsMemRec, ptr %16, i32 0, i32 25
  %18 = load ptr, ptr %17, align 8, !tbaa !34
  %19 = load ptr, ptr %6, align 8, !tbaa !48
  %20 = load ptr, ptr %7, align 8, !tbaa !48
  %21 = load ptr, ptr %8, align 8, !tbaa !9
  %22 = getelementptr inbounds nuw %struct.CVodeMemRec, ptr %21, i32 0, i32 83
  %23 = load double, ptr %22, align 8, !tbaa !49
  %24 = load ptr, ptr %9, align 8, !tbaa !22
  %25 = getelementptr inbounds nuw %struct.CVSpilsMemRec, ptr %24, i32 0, i32 17
  %26 = load ptr, ptr %25, align 8, !tbaa !50
  %27 = load ptr, ptr %9, align 8, !tbaa !22
  %28 = getelementptr inbounds nuw %struct.CVSpilsMemRec, ptr %27, i32 0, i32 18
  %29 = load ptr, ptr %28, align 8, !tbaa !51
  %30 = load ptr, ptr %9, align 8, !tbaa !22
  %31 = getelementptr inbounds nuw %struct.CVSpilsMemRec, ptr %30, i32 0, i32 26
  %32 = load ptr, ptr %31, align 8, !tbaa !52
  %33 = load ptr, ptr %9, align 8, !tbaa !22
  %34 = getelementptr inbounds nuw %struct.CVSpilsMemRec, ptr %33, i32 0, i32 15
  %35 = load ptr, ptr %34, align 8, !tbaa !53
  %36 = call i32 %18(ptr noundef %19, ptr noundef %20, double noundef %23, ptr noundef %26, ptr noundef %29, ptr noundef %32, ptr noundef %35)
  store i32 %36, ptr %10, align 4, !tbaa !7
  %37 = load ptr, ptr %9, align 8, !tbaa !22
  %38 = getelementptr inbounds nuw %struct.CVSpilsMemRec, ptr %37, i32 0, i32 13
  %39 = load i64, ptr %38, align 8, !tbaa !43
  %40 = add nsw i64 %39, 1
  store i64 %40, ptr %38, align 8, !tbaa !43
  %41 = load i32, ptr %10, align 4, !tbaa !7
  %42 = icmp ne i32 %41, 0
  br i1 %42, label %43, label %45

43:                                               ; preds = %3
  %44 = load i32, ptr %10, align 4, !tbaa !7
  store i32 %44, ptr %4, align 4
  store i32 1, ptr %11, align 4
  br label %53

45:                                               ; preds = %3
  %46 = load ptr, ptr %6, align 8, !tbaa !48
  %47 = load ptr, ptr %8, align 8, !tbaa !9
  %48 = getelementptr inbounds nuw %struct.CVodeMemRec, ptr %47, i32 0, i32 89
  %49 = load double, ptr %48, align 8, !tbaa !54
  %50 = fneg double %49
  %51 = load ptr, ptr %7, align 8, !tbaa !48
  %52 = load ptr, ptr %7, align 8, !tbaa !48
  call void @N_VLinearSum(double noundef 1.000000e+00, ptr noundef %46, double noundef %50, ptr noundef %51, ptr noundef %52)
  store i32 0, ptr %4, align 4
  store i32 1, ptr %11, align 4
  br label %53

53:                                               ; preds = %45, %43
  call void @llvm.lifetime.end.p0(i64 4, ptr %10) #5
  call void @llvm.lifetime.end.p0(i64 8, ptr %9) #5
  call void @llvm.lifetime.end.p0(i64 8, ptr %8) #5
  %54 = load i32, ptr %4, align 4
  ret i32 %54
}