; Function Attrs: nounwind uwtable
define i32 @CVSpilsAtimes(ptr noundef readonly captures(none) %0, ptr noundef %1, ptr noundef %2) local_unnamed_addr #0 {
  %4 = getelementptr inbounds nuw i8, ptr %0, i64 1696
  %5 = load ptr, ptr %4, align 8, !tbaa !3
  %6 = getelementptr inbounds nuw i8, ptr %5, i64 192
  %7 = load ptr, ptr %6, align 8, !tbaa !27
  %8 = getelementptr inbounds nuw i8, ptr %0, i64 984
  %9 = load double, ptr %8, align 8, !tbaa !38
  %10 = getelementptr inbounds nuw i8, ptr %5, i64 128
  %11 = load ptr, ptr %10, align 8, !tbaa !39
  %12 = getelementptr inbounds nuw i8, ptr %5, i64 136
  %13 = load ptr, ptr %12, align 8, !tbaa !40
  %14 = getelementptr inbounds nuw i8, ptr %5, i64 200
  %15 = load ptr, ptr %14, align 8, !tbaa !41
  %16 = getelementptr inbounds nuw i8, ptr %5, i64 112
  %17 = load ptr, ptr %16, align 8, !tbaa !42
  %18 = tail call i32 %7(ptr noundef %1, ptr noundef %2, double noundef %9, ptr noundef %11, ptr noundef %13, ptr noundef %15, ptr noundef %17) #5
  %19 = getelementptr inbounds nuw i8, ptr %5, i64 96
  %20 = load i64, ptr %19, align 8, !tbaa !35
  %21 = add nsw i64 %20, 1
  store i64 %21, ptr %19, align 8, !tbaa !35
  %.not = icmp eq i32 %18, 0
  br i1 %.not, label %22, label %26

22:                                               ; preds = %3
  %23 = getelementptr inbounds nuw i8, ptr %0, i64 1272
  %24 = load double, ptr %23, align 8, !tbaa !43
  %25 = fneg double %24
  tail call void @N_VLinearSum(double noundef 1.000000e+00, ptr noundef %1, double noundef %25, ptr noundef %2, ptr noundef %2) #5
  br label %26

26:                                               ; preds = %3, %22
  ret i32 %18
}